; Function Attrs: mustprogress nofree norecurse nounwind memory(readwrite, inaccessiblemem: none) uwtable
define void @_ZN9grpc_core8internal23ServerRetryThrottleData34GetReplacementThrottleDataIfNeededEPPS1_(ptr noundef nonnull readnone align 8 captures(none) dereferenceable(48) %0, ptr noundef captures(none) %1) local_unnamed_addr #6 align 2 {
  %3 = load ptr, ptr %1, align 8, !tbaa !26
  %4 = getelementptr inbounds nuw i8, ptr %3, i64 40
  %5 = load atomic i64, ptr %4 acquire, align 8
  %6 = icmp eq i64 %5, 0
  br i1 %6, label %._crit_edge, label %.lr.ph

.lr.ph:                                           ; preds = %2, %.lr.ph
  %7 = phi i64 [ %9, %.lr.ph ], [ %5, %2 ]
  %.0.i.i = inttoptr i64 %7 to ptr
  store ptr %.0.i.i, ptr %1, align 8, !tbaa !26
  %8 = getelementptr inbounds nuw i8, ptr %.0.i.i, i64 40
  %9 = load atomic i64, ptr %8 acquire, align 8
  %10 = icmp eq i64 %9, 0
  br i1 %10, label %._crit_edge, label %.lr.ph

._crit_edge:                                      ; preds = %.lr.ph, %2
  ret void
}